target datalayout = "e-m:e-p270:32:32-p271:32:32-p272:64:64-i64:64-i128:128-f80:128-n8:16:32:64-S128"
target triple = "x86_64-pc-linux-gnu"

%struct.partition_info_msg = type { i64, i32, ptr }
%struct.partition_info = type { ptr, ptr, ptr, ptr, ptr, ptr, ptr, i16, i32, i64, i32, ptr, ptr, i32, i32, ptr, ptr, i32, i32, i64, i32, i16, i32, i32, ptr, ptr, ptr, ptr, i16, i16, i16, i16, ptr, i16, i16, i32, i16, i32, i32, ptr }

@.str = private unnamed_addr constant [42 x i8] c"Partition data as of %s, record count %d\0A\00", align 1
@.str.1 = private unnamed_addr constant [3 x i8] c"%s\00", align 1

; Function Attrs: nounwind uwtable
define dso_local void @slurm_print_partition_info(ptr noundef %0, ptr noundef %1, i32 noundef %2) #0 {
  %4 = alloca ptr, align 8
  %5 = alloca ptr, align 8
  %6 = alloca i32, align 4
  %7 = alloca ptr, align 8
  store ptr %0, ptr %4, align 8
  store ptr %1, ptr %5, align 8
  store i32 %2, ptr %6, align 4
  call void @llvm.lifetime.start.p0(i64 8, ptr %7) #8
  %8 = load ptr, ptr %5, align 8
  %9 = load i32, ptr %6, align 4
  %10 = call ptr @slurm_sprint_partition_info(ptr noundef %8, i32 noundef %9)
  store ptr %10, ptr %7, align 8
  %11 = load ptr, ptr %4, align 8
  %12 = load ptr, ptr %7, align 8
  %13 = call i32 (ptr, ptr, ...) @fprintf(ptr noundef %11, ptr noundef @.str.1, ptr noundef %12) #8
  call void @slurm_xfree(ptr noundef %7)
  call void @llvm.lifetime.end.p0(i64 8, ptr %7) #8
  ret void
}

; Function Attrs: nounwind uwtable
define dso_local void @slurm_print_partition_info_msg(ptr noundef %0, ptr noundef %1, i32 noundef %2) #0 {
  %4 = alloca ptr, align 8
  %5 = alloca ptr, align 8
  %6 = alloca i32, align 4
  %7 = alloca i32, align 4
  %8 = alloca ptr, align 8
  %9 = alloca [256 x i8], align 16
  store ptr %0, ptr %4, align 8
  store ptr %1, ptr %5, align 8
  store i32 %2, ptr %6, align 4
  call void @llvm.lifetime.start.p0(i64 4, ptr %7) #8
  call void @llvm.lifetime.start.p0(i64 8, ptr %8) #8
  %10 = load ptr, ptr %5, align 8
  %11 = getelementptr inbounds nuw %struct.partition_info_msg, ptr %10, i32 0, i32 2
  %12 = load ptr, ptr %11, align 8
  store ptr %12, ptr %8, align 8
  call void @llvm.lifetime.start.p0(i64 256, ptr %9) #8
  %13 = load ptr, ptr %5, align 8
  %14 = getelementptr inbounds nuw %struct.partition_info_msg, ptr %13, i32 0, i32 0
  %15 = getelementptr inbounds [256 x i8], ptr %9, i64 0, i64 0
  call void @slurm_make_time_str(ptr noundef %14, ptr noundef %15, i32 noundef 256)
  %16 = load ptr, ptr %4, align 8
  %17 = getelementptr inbounds [256 x i8], ptr %9, i64 0, i64 0
  %18 = load ptr, ptr %5, align 8
  %19 = getelementptr inbounds nuw %struct.partition_info_msg, ptr %18, i32 0, i32 1
  %20 = load i32, ptr %19, align 8
  %21 = call i32 (ptr, ptr, ...) @fprintf(ptr noundef %16, ptr noundef @.str, ptr noundef %17, i32 noundef %20) #8
  store i32 0, ptr %7, align 4
  br label %22

22:                                               ; preds = %35, %3
  %23 = load i32, ptr %7, align 4
  %24 = load ptr, ptr %5, align 8
  %25 = getelementptr inbounds nuw %struct.partition_info_msg, ptr %24, i32 0, i32 1
  %26 = load i32, ptr %25, align 8
  %27 = icmp ult i32 %23, %26
  br i1 %27, label %28, label %38

28:                                               ; preds = %22
  %29 = load ptr, ptr %4, align 8
  %30 = load ptr, ptr %8, align 8
  %31 = load i32, ptr %7, align 4
  %32 = sext i32 %31 to i64
  %33 = getelementptr inbounds %struct.partition_info, ptr %30, i64 %32
  %34 = load i32, ptr %6, align 4
  call void @slurm_print_partition_info(ptr noundef %29, ptr noundef %33, i32 noundef %34)
  br label %35

35:                                               ; preds = %28
  %36 = load i32, ptr %7, align 4
  %37 = add nsw i32 %36, 1
  store i32 %37, ptr %7, align 4
  br label %22, !llvm.loop !8

38:                                               ; preds = %22
  call void @llvm.lifetime.end.p0(i64 256, ptr %9) #8
  call void @llvm.lifetime.end.p0(i64 8, ptr %8) #8
  call void @llvm.lifetime.end.p0(i64 4, ptr %7) #8
  ret void
}